; Function Attrs: nounwind uwtable
define internal fastcc range(i32 -2147483648, 2) i32 @r_remove_second_order_prefix(ptr noundef initializes((20, 24)) %0) unnamed_addr #0 {
  %2 = getelementptr inbounds nuw i8, ptr %0, i64 8
  %3 = load i32, ptr %2, align 8
  %4 = getelementptr inbounds nuw i8, ptr %0, i64 20
  store i32 %3, ptr %4, align 4
  %5 = add i32 %3, 1
  %6 = getelementptr inbounds nuw i8, ptr %0, i64 12
  %7 = load i32, ptr %6, align 4
  %.not = icmp slt i32 %5, %7
  br i1 %.not, label %8, label %44

8:                                                ; preds = %1
  %9 = load ptr, ptr %0, align 8
  %10 = sext i32 %5 to i64
  %11 = getelementptr inbounds i8, ptr %9, i64 %10
  %12 = load i8, ptr %11, align 1
  %.not43 = icmp eq i8 %12, 101
  br i1 %.not43, label %13, label %44

13:                                               ; preds = %8
  %14 = tail call i32 @find_among(ptr noundef nonnull %0, ptr noundef nonnull @a_4, i32 noundef 6) #4
  %.not44 = icmp eq i32 %14, 0
  br i1 %.not44, label %44, label %15

15:                                               ; preds = %13
  %16 = load i32, ptr %2, align 8
  %17 = getelementptr inbounds nuw i8, ptr %0, i64 24
  store i32 %16, ptr %17, align 8
  switch i32 %14, label %44 [
    i32 1, label %18
    i32 2, label %24
    i32 3, label %29
    i32 4, label %35
  ]

18:                                               ; preds = %15
  %19 = tail call i32 @slice_del(ptr noundef nonnull %0) #4
  %20 = icmp sgt i32 %19, -1
  br i1 %20, label %21, label %44

21:                                               ; preds = %18
  %22 = getelementptr inbounds nuw i8, ptr %0, i64 40
  %23 = load ptr, ptr %22, align 8
  store i32 2, ptr %23, align 4
  br label %.sink.split

24:                                               ; preds = %15
  %25 = tail call i32 @slice_from_s(ptr noundef nonnull %0, i32 noundef 4, ptr noundef nonnull @s_5) #4
  %26 = icmp sgt i32 %25, -1
  br i1 %26, label %27, label %44

27:                                               ; preds = %24
  %28 = getelementptr inbounds nuw i8, ptr %0, i64 40
  br label %.sink.split

29:                                               ; preds = %15
  %30 = tail call i32 @slice_del(ptr noundef nonnull %0) #4
  %31 = icmp sgt i32 %30, -1
  br i1 %31, label %32, label %44

32:                                               ; preds = %29
  %33 = getelementptr inbounds nuw i8, ptr %0, i64 40
  %34 = load ptr, ptr %33, align 8
  store i32 4, ptr %34, align 4
  br label %.sink.split

35:                                               ; preds = %15
  %36 = tail call i32 @slice_from_s(ptr noundef nonnull %0, i32 noundef 4, ptr noundef nonnull @s_6) #4
  %37 = icmp sgt i32 %36, -1
  br i1 %37, label %38, label %44

38:                                               ; preds = %35
  %39 = getelementptr inbounds nuw i8, ptr %0, i64 40
  %40 = load ptr, ptr %39, align 8
  store i32 4, ptr %40, align 4
  br label %.sink.split

.sink.split:                                      ; preds = %38, %32, %27, %21
  %.sink47.in = phi ptr [ %22, %21 ], [ %28, %27 ], [ %33, %32 ], [ %39, %38 ]
  %.sink47 = load ptr, ptr %.sink47.in, align 8
  %41 = getelementptr inbounds nuw i8, ptr %.sink47, i64 4
  %42 = load i32, ptr %41, align 4
  %43 = add i32 %42, -1
  store i32 %43, ptr %41, align 4
  br label %44

44:                                               ; preds = %.sink.split, %15, %13, %1, %8, %18, %24, %29, %35
  %.0 = phi i32 [ %36, %35 ], [ %30, %29 ], [ %25, %24 ], [ %19, %18 ], [ 0, %8 ], [ 0, %1 ], [ 0, %13 ], [ 1, %15 ], [ 1, %.sink.split ]
  ret i32 %.0
}